; Function Attrs: mustprogress uwtable
define void @_ZN6icu_7514SearchIteratorC2Ev(ptr noundef nonnull align 8 dereferenceable(88) %this) unnamed_addr #0 align 2 personality ptr @__gxx_personality_v0 {
invoke.cont:
  store ptr getelementptr inbounds ({ [16 x ptr] }, ptr @_ZTVN6icu_7514SearchIteratorE, i64 0, i32 0, i64 2), ptr %this, align 8
  %m_text_ = getelementptr inbounds i8, ptr %this, i64 24
  store ptr getelementptr inbounds ({ [13 x ptr] }, ptr @_ZTVN6icu_7513UnicodeStringE, i64 0, i32 0, i64 2), ptr %m_text_, align 8
  %fUnion2.i = getelementptr inbounds i8, ptr %this, i64 32
  store i16 2, ptr %fUnion2.i, align 8
  %call = invoke noalias dereferenceable_or_null(48) ptr @uprv_malloc_75(i64 noundef 48) #14
          to label %invoke.cont3 unwind label %lpad2

invoke.cont3:                                     ; preds = %invoke.cont
  %m_search_ = getelementptr inbounds i8, ptr %this, i64 8
  store ptr %call, ptr %m_search_, align 8
  %breakIter = getelementptr inbounds i8, ptr %call, i64 24
  store ptr null, ptr %breakIter, align 8
  %isOverlap = getelementptr inbounds i8, ptr %call, i64 12
  store i8 0, ptr %isOverlap, align 4
  %isCanonicalMatch = getelementptr inbounds i8, ptr %call, i64 13
  store i8 0, ptr %isCanonicalMatch, align 1
  %elementComparisonType = getelementptr inbounds i8, ptr %call, i64 14
  store i16 0, ptr %elementComparisonType, align 2
  %isForwardSearching = getelementptr inbounds i8, ptr %call, i64 40
  store i8 1, ptr %isForwardSearching, align 8
  %reset = getelementptr inbounds i8, ptr %call, i64 41
  store i8 1, ptr %reset, align 1
  %matchedIndex = getelementptr inbounds i8, ptr %call, i64 32
  store i32 -1, ptr %matchedIndex, align 8
  %matchedLength = getelementptr inbounds i8, ptr %call, i64 36
  store i32 0, ptr %matchedLength, align 4
  store ptr null, ptr %call, align 8
  %textLength = getelementptr inbounds i8, ptr %call, i64 8
  store i32 0, ptr %textLength, align 8
  %m_breakiterator_ = getelementptr inbounds i8, ptr %this, i64 16
  store ptr null, ptr %m_breakiterator_, align 8
  ret void

lpad2:                                            ; preds = %invoke.cont
  %0 = landingpad { ptr, i32 }
          cleanup
  tail call void @_ZN6icu_7513UnicodeStringD1Ev(ptr noundef nonnull align 8 dereferenceable(64) %m_text_) #15
  tail call void @_ZN6icu_757UObjectD2Ev(ptr noundef nonnull align 8 dereferenceable(8) %this) #15
  resume { ptr, i32 } %0
}